target datalayout = "e-m:e-p270:32:32-p271:32:32-p272:64:64-i64:64-i128:128-f80:128-n8:16:32:64-S128"
target triple = "x86_64-pc-linux-gnu"

; Function Attrs: nounwind sspstrong uwtable
define internal i64 @enum_hashify_into(i64 noundef %0, i32 noundef %1, ptr noundef %2, ptr noundef %3, i64 noundef %4) #0 {
  %6 = alloca i64, align 8
  %7 = alloca i32, align 4
  %8 = alloca ptr, align 8
  %9 = alloca ptr, align 8
  %10 = alloca i64, align 8
  store i64 %0, ptr %6, align 8, !tbaa !14
  store i32 %1, ptr %7, align 4, !tbaa !7
  store ptr %2, ptr %8, align 8, !tbaa !11
  store ptr %3, ptr %9, align 8, !tbaa !26
  store i64 %4, ptr %10, align 8, !tbaa !14
  %11 = load i64, ptr %6, align 8, !tbaa !14
  %12 = load i32, ptr %7, align 4, !tbaa !7
  %13 = load ptr, ptr %8, align 8, !tbaa !11
  %14 = load ptr, ptr %9, align 8, !tbaa !26
  %15 = load i64, ptr %10, align 8, !tbaa !14
  %16 = call i64 @rb_block_call(i64 noundef %11, i64 noundef 3073, i32 noundef %12, ptr noundef %13, ptr noundef %14, i64 noundef %15)
  %17 = load i64, ptr %10, align 8, !tbaa !14
  ret i64 %17
}

; Function Attrs: nounwind sspstrong uwtable
define internal i64 @enum_hashify(i64 noundef %0, i32 noundef %1, ptr noundef %2, ptr noundef %3) #0 {
  %5 = alloca i64, align 8
  %6 = alloca i32, align 4
  %7 = alloca ptr, align 8
  %8 = alloca ptr, align 8
  store i64 %0, ptr %5, align 8, !tbaa !14
  store i32 %1, ptr %6, align 4, !tbaa !7
  store ptr %2, ptr %7, align 8, !tbaa !11
  store ptr %3, ptr %8, align 8, !tbaa !26
  %9 = load i64, ptr %5, align 8, !tbaa !14
  %10 = load i32, ptr %6, align 4, !tbaa !7
  %11 = load ptr, ptr %7, align 8, !tbaa !11
  %12 = load ptr, ptr %8, align 8, !tbaa !26
  %13 = call i64 @rb_hash_new()
  %14 = call i64 @enum_hashify_into(i64 noundef %9, i32 noundef %10, ptr noundef %11, ptr noundef %12, i64 noundef %13)
  ret i64 %14
}

; Function Attrs: nounwind sspstrong uwtable
define internal i64 @enum_group_by(i64 noundef %0) #0 {
  %2 = alloca i64, align 8
  %3 = alloca i64, align 8
  %4 = alloca i64, align 8
  store i64 %0, ptr %3, align 8, !tbaa !14
  br label %5

5:                                                ; preds = %1
  %6 = call i32 @rb_block_given_p()
  %7 = icmp ne i32 %6, 0
  br i1 %7, label %14, label %8

8:                                                ; preds = %5
  %9 = load i64, ptr %3, align 8, !tbaa !14
  %10 = call i64 @rb_frame_this_func()
  %11 = call i64 @rb_id2sym(i64 noundef %10)
  store i64 %11, ptr %4, align 8, !tbaa !14
  %12 = load i64, ptr %4, align 8, !tbaa !14
  %13 = call i64 @rb_enumeratorize_with_size(i64 noundef %9, i64 noundef %12, i32 noundef 0, ptr noundef null, ptr noundef @enum_size)
  store i64 %13, ptr %2, align 8
  br label %18

14:                                               ; preds = %5
  br label %15

15:                                               ; preds = %14
  %16 = load i64, ptr %3, align 8, !tbaa !14
  %17 = call i64 @enum_hashify(i64 noundef %16, i32 noundef 0, ptr noundef null, ptr noundef @group_by_i)
  store i64 %17, ptr %2, align 8
  br label %18

18:                                               ; preds = %15, %8
  %19 = load i64, ptr %2, align 8
  ret i64 %19
}